; Function Attrs: mustprogress nofree norecurse nosync nounwind willreturn memory(argmem: read) uwtable
define ptr @wolfSSL_CTX_GetHeap(ptr noundef readonly captures(address_is_null) %0, ptr noundef readonly captures(address_is_null) %1) local_unnamed_addr #9 {
  %.not = icmp eq ptr %0, null
  br i1 %.not, label %6, label %3

3:                                                ; preds = %2
  %4 = getelementptr inbounds nuw i8, ptr %0, i64 160
  %5 = load ptr, ptr %4, align 8, !tbaa !116
  br label %10

6:                                                ; preds = %2
  %.not7 = icmp eq ptr %1, null
  br i1 %.not7, label %10, label %7

7:                                                ; preds = %6
  %8 = getelementptr inbounds nuw i8, ptr %1, i64 176
  %9 = load ptr, ptr %8, align 16, !tbaa !164
  br label %10

10:                                               ; preds = %6, %7, %3
  %.0 = phi ptr [ %5, %3 ], [ %9, %7 ], [ null, %6 ]
  ret ptr %.0
}